target datalayout = "e-m:e-p270:32:32-p271:32:32-p272:64:64-i64:64-i128:128-f80:128-n8:16:32:64-S128"
target triple = "x86_64-pc-linux-gnu"

%struct.ArHosekSkyModelState = type { [11 x [9 x double]], [11 x double], double, double, [11 x double], [11 x double], double, double }

@datasets = dso_local global [11 x ptr] [ptr @dataset320, ptr @dataset360, ptr @dataset400, ptr @dataset440, ptr @dataset480, ptr @dataset520, ptr @dataset560, ptr @dataset600, ptr @dataset640, ptr @dataset680, ptr @dataset720], align 16
@datasetsRad = dso_local global [11 x ptr] [ptr @datasetRad320, ptr @datasetRad360, ptr @datasetRad400, ptr @datasetRad440, ptr @datasetRad480, ptr @datasetRad520, ptr @datasetRad560, ptr @datasetRad600, ptr @datasetRad640, ptr @datasetRad680, ptr @datasetRad720], align 16

; Function Attrs: nounwind uwtable
define dso_local double @art_blackbody_dd_value(double noundef %0, double noundef %1) #0 {
  %3 = alloca double, align 8
  %4 = alloca double, align 8
  %5 = alloca double, align 8
  %6 = alloca double, align 8
  %7 = alloca double, align 8
  store double %0, ptr %3, align 8, !tbaa !9
  store double %1, ptr %4, align 8, !tbaa !9
  call void @llvm.lifetime.start.p0(i64 8, ptr %5) #5
  store double 3.741770e-16, ptr %5, align 8, !tbaa !9
  call void @llvm.lifetime.start.p0(i64 8, ptr %6) #5
  store double 1.438780e-02, ptr %6, align 8, !tbaa !9
  call void @llvm.lifetime.start.p0(i64 8, ptr %7) #5
  %8 = load double, ptr %5, align 8, !tbaa !9
  %9 = load double, ptr %4, align 8, !tbaa !9
  %10 = call double @pow(double noundef %9, double noundef 5.000000e+00) #5, !tbaa !11
  %11 = fdiv double %8, %10
  %12 = load double, ptr %6, align 8, !tbaa !9
  %13 = load double, ptr %4, align 8, !tbaa !9
  %14 = load double, ptr %3, align 8, !tbaa !9
  %15 = fmul double %13, %14
  %16 = fdiv double %12, %15
  %17 = call double @exp(double noundef %16) #5, !tbaa !11
  %18 = fsub double %17, 1.000000e+00
  %19 = fdiv double 1.000000e+00, %18
  %20 = fmul double %11, %19
  store double %20, ptr %7, align 8, !tbaa !9
  %21 = load double, ptr %7, align 8, !tbaa !9
  call void @llvm.lifetime.end.p0(i64 8, ptr %7) #5
  call void @llvm.lifetime.end.p0(i64 8, ptr %6) #5
  call void @llvm.lifetime.end.p0(i64 8, ptr %5) #5
  ret double %21
}

; Function Attrs: nounwind uwtable
define dso_local ptr @arhosekskymodelstate_alienworld_alloc_init(double noundef %0, double noundef %1, double noundef %2, double noundef %3, double noundef %4) #0 {
  %6 = alloca double, align 8
  %7 = alloca double, align 8
  %8 = alloca double, align 8
  %9 = alloca double, align 8
  %10 = alloca double, align 8
  %11 = alloca ptr, align 8
  %12 = alloca i32, align 4
  %13 = alloca double, align 8
  %14 = alloca double, align 8
  %15 = alloca double, align 8
  %16 = alloca double, align 8
  %17 = alloca i32, align 4
  %18 = alloca double, align 8
  store double %0, ptr %6, align 8, !tbaa !9
  store double %1, ptr %7, align 8, !tbaa !9
  store double %2, ptr %8, align 8, !tbaa !9
  store double %3, ptr %9, align 8, !tbaa !9
  store double %4, ptr %10, align 8, !tbaa !9
  call void @llvm.lifetime.start.p0(i64 8, ptr %11) #5
  %19 = call noalias ptr @malloc(i64 noundef 1088) #6
  store ptr %19, ptr %11, align 8, !tbaa !18
  %20 = load double, ptr %9, align 8, !tbaa !9
  %21 = load ptr, ptr %11, align 8, !tbaa !18
  %22 = getelementptr inbounds nuw %struct.ArHosekSkyModelState, ptr %21, i32 0, i32 2
  store double %20, ptr %22, align 8, !tbaa !22
  %23 = load double, ptr %10, align 8, !tbaa !9
  %24 = load ptr, ptr %11, align 8, !tbaa !18
  %25 = getelementptr inbounds nuw %struct.ArHosekSkyModelState, ptr %24, i32 0, i32 6
  store double %23, ptr %25, align 8, !tbaa !23
  %26 = load double, ptr %6, align 8, !tbaa !9
  %27 = load ptr, ptr %11, align 8, !tbaa !18
  %28 = getelementptr inbounds nuw %struct.ArHosekSkyModelState, ptr %27, i32 0, i32 7
  store double %26, ptr %28, align 8, !tbaa !24
  call void @llvm.lifetime.start.p0(i64 4, ptr %12) #5
  store i32 0, ptr %12, align 4, !tbaa !11
  br label %29

29:                                               ; preds = %79, %5
  %30 = load i32, ptr %12, align 4, !tbaa !11
  %31 = icmp ult i32 %30, 11
  br i1 %31, label %32, label %82

32:                                               ; preds = %29
  %33 = load i32, ptr %12, align 4, !tbaa !11
  %34 = zext i32 %33 to i64
  %35 = getelementptr inbounds nuw [11 x ptr], ptr @datasets, i64 0, i64 %34
  %36 = load ptr, ptr %35, align 8, !tbaa !4
  %37 = load ptr, ptr %11, align 8, !tbaa !18
  %38 = getelementptr inbounds nuw %struct.ArHosekSkyModelState, ptr %37, i32 0, i32 0
  %39 = load i32, ptr %12, align 4, !tbaa !11
  %40 = zext i32 %39 to i64
  %41 = getelementptr inbounds nuw [11 x [9 x double]], ptr %38, i64 0, i64 %40
  %42 = getelementptr inbounds [9 x double], ptr %41, i64 0, i64 0
  %43 = load double, ptr %9, align 8, !tbaa !9
  %44 = load double, ptr %10, align 8, !tbaa !9
  %45 = load double, ptr %6, align 8, !tbaa !9
  call void @ArHosekSkyModel_CookConfiguration(ptr noundef %36, ptr noundef %42, double noundef %43, double noundef %44, double noundef %45)
  %46 = load i32, ptr %12, align 4, !tbaa !11
  %47 = zext i32 %46 to i64
  %48 = getelementptr inbounds nuw [11 x ptr], ptr @datasetsRad, i64 0, i64 %47
  %49 = load ptr, ptr %48, align 8, !tbaa !4
  %50 = load double, ptr %9, align 8, !tbaa !9
  %51 = load double, ptr %10, align 8, !tbaa !9
  %52 = load double, ptr %6, align 8, !tbaa !9
  %53 = call double @ArHosekSkyModel_CookRadianceConfiguration(ptr noundef %49, double noundef %50, double noundef %51, double noundef %52)
  %54 = load ptr, ptr %11, align 8, !tbaa !18
  %55 = getelementptr inbounds nuw %struct.ArHosekSkyModelState, ptr %54, i32 0, i32 1
  %56 = load i32, ptr %12, align 4, !tbaa !11
  %57 = zext i32 %56 to i64
  %58 = getelementptr inbounds nuw [11 x double], ptr %55, i64 0, i64 %57
  store double %53, ptr %58, align 8, !tbaa !9
  call void @llvm.lifetime.start.p0(i64 8, ptr %13) #5
  %59 = load i32, ptr %12, align 4, !tbaa !11
  %60 = uitofp i32 %59 to double
  %61 = call double @llvm.fmuladd.f64(double 4.000000e+01, double %60, double 3.200000e+02)
  %62 = fmul double %61, 1.000000e-09
  store double %62, ptr %13, align 8, !tbaa !9
  call void @llvm.lifetime.start.p0(i64 8, ptr %14) #5
  %63 = load i32, ptr %12, align 4, !tbaa !11
  %64 = zext i32 %63 to i64
  %65 = getelementptr inbounds nuw [11 x double], ptr @originalSolarRadianceTable, i64 0, i64 %64
  %66 = load double, ptr %65, align 8, !tbaa !9
  store double %66, ptr %14, align 8, !tbaa !9
  call void @llvm.lifetime.start.p0(i64 8, ptr %15) #5
  %67 = load double, ptr %8, align 8, !tbaa !9
  %68 = load double, ptr %13, align 8, !tbaa !9
  %69 = call double @art_blackbody_dd_value(double noundef %67, double noundef %68)
  %70 = fmul double %69, 3.199920e-10
  store double %70, ptr %15, align 8, !tbaa !9
  %71 = load double, ptr %15, align 8, !tbaa !9
  %72 = load double, ptr %14, align 8, !tbaa !9
  %73 = fdiv double %71, %72
  %74 = load ptr, ptr %11, align 8, !tbaa !18
  %75 = getelementptr inbounds nuw %struct.ArHosekSkyModelState, ptr %74, i32 0, i32 5
  %76 = load i32, ptr %12, align 4, !tbaa !11
  %77 = zext i32 %76 to i64
  %78 = getelementptr inbounds nuw [11 x double], ptr %75, i64 0, i64 %77
  store double %73, ptr %78, align 8, !tbaa !9
  call void @llvm.lifetime.end.p0(i64 8, ptr %15) #5
  call void @llvm.lifetime.end.p0(i64 8, ptr %14) #5
  call void @llvm.lifetime.end.p0(i64 8, ptr %13) #5
  br label %79

79:                                               ; preds = %32
  %80 = load i32, ptr %12, align 4, !tbaa !11
  %81 = add i32 %80, 1
  store i32 %81, ptr %12, align 4, !tbaa !11
  br label %29, !llvm.loop !26

82:                                               ; preds = %29
  call void @llvm.lifetime.start.p0(i64 8, ptr %16) #5
  store double 0.000000e+00, ptr %16, align 8, !tbaa !9
  call void @llvm.lifetime.start.p0(i64 4, ptr %17) #5
  store i32 2, ptr %17, align 4, !tbaa !11
  br label %83

83:                                               ; preds = %95, %82
  %84 = load i32, ptr %17, align 4, !tbaa !11
  %85 = icmp ult i32 %84, 11
  br i1 %85, label %86, label %98

86:                                               ; preds = %83
  %87 = load ptr, ptr %11, align 8, !tbaa !18
  %88 = getelementptr inbounds nuw %struct.ArHosekSkyModelState, ptr %87, i32 0, i32 5
  %89 = load i32, ptr %17, align 4, !tbaa !11
  %90 = zext i32 %89 to i64
  %91 = getelementptr inbounds nuw [11 x double], ptr %88, i64 0, i64 %90
  %92 = load double, ptr %91, align 8, !tbaa !9
  %93 = load double, ptr %16, align 8, !tbaa !9
  %94 = fadd double %93, %92
  store double %94, ptr %16, align 8, !tbaa !9
  br label %95

95:                                               ; preds = %86
  %96 = load i32, ptr %17, align 4, !tbaa !11
  %97 = add i32 %96, 1
  store i32 %97, ptr %17, align 4, !tbaa !11
  br label %83, !llvm.loop !27

98:                                               ; preds = %83
  call void @llvm.lifetime.start.p0(i64 8, ptr %18) #5
  %99 = load double, ptr %16, align 8, !tbaa !9
  %100 = fdiv double %99, 9.000000e+00
  store double %100, ptr %18, align 8, !tbaa !9
  %101 = load double, ptr %7, align 8, !tbaa !9
  %102 = call double @sqrt(double noundef %101) #5, !tbaa !11
  %103 = fmul double %102, 0x3F723AC80BF81B3F
  %104 = load double, ptr %18, align 8, !tbaa !9
  %105 = call double @sqrt(double noundef %104) #5, !tbaa !11
  %106 = fdiv double %103, %105
  %107 = load ptr, ptr %11, align 8, !tbaa !18
  %108 = getelementptr inbounds nuw %struct.ArHosekSkyModelState, ptr %107, i32 0, i32 3
  store double %106, ptr %108, align 8, !tbaa !20
  store i32 0, ptr %17, align 4, !tbaa !11
  br label %109

109:                                              ; preds = %128, %98
  %110 = load i32, ptr %17, align 4, !tbaa !11
  %111 = icmp ult i32 %110, 11
  br i1 %111, label %112, label %131

112:                                              ; preds = %109
  %113 = load double, ptr %7, align 8, !tbaa !9
  %114 = load ptr, ptr %11, align 8, !tbaa !18
  %115 = getelementptr inbounds nuw %struct.ArHosekSkyModelState, ptr %114, i32 0, i32 5
  %116 = load i32, ptr %17, align 4, !tbaa !11
  %117 = zext i32 %116 to i64
  %118 = getelementptr inbounds nuw [11 x double], ptr %115, i64 0, i64 %117
  %119 = load double, ptr %118, align 8, !tbaa !9
  %120 = fmul double %113, %119
  %121 = load double, ptr %18, align 8, !tbaa !9
  %122 = fdiv double %120, %121
  %123 = load ptr, ptr %11, align 8, !tbaa !18
  %124 = getelementptr inbounds nuw %struct.ArHosekSkyModelState, ptr %123, i32 0, i32 4
  %125 = load i32, ptr %17, align 4, !tbaa !11
  %126 = zext i32 %125 to i64
  %127 = getelementptr inbounds nuw [11 x double], ptr %124, i64 0, i64 %126
  store double %122, ptr %127, align 8, !tbaa !9
  br label %128

128:                                              ; preds = %112
  %129 = load i32, ptr %17, align 4, !tbaa !11
  %130 = add i32 %129, 1
  store i32 %130, ptr %17, align 4, !tbaa !11
  br label %109, !llvm.loop !28

131:                                              ; preds = %109
  %132 = load ptr, ptr %11, align 8, !tbaa !18
  call void @llvm.lifetime.end.p0(i64 8, ptr %18) #5
  call void @llvm.lifetime.end.p0(i64 4, ptr %17) #5
  call void @llvm.lifetime.end.p0(i64 8, ptr %16) #5
  call void @llvm.lifetime.end.p0(i64 4, ptr %12) #5
  call void @llvm.lifetime.end.p0(i64 8, ptr %11) #5
  ret ptr %132
}