; Function Attrs: nofree nounwind uwtable
define dso_local noalias noundef ptr @arhosekskymodelstate_alienworld_alloc_init(double noundef %0, double noundef %1, double noundef %2, double noundef %3, double noundef %4) local_unnamed_addr #5 {
  %6 = tail call noalias dereferenceable_or_null(1088) ptr @malloc(i64 noundef 1088) #13
  %7 = getelementptr inbounds nuw i8, ptr %6, i64 880
  store double %3, ptr %7, align 8, !tbaa !17
  %8 = getelementptr inbounds nuw i8, ptr %6, i64 1072
  store double %4, ptr %8, align 8, !tbaa !18
  %9 = getelementptr inbounds nuw i8, ptr %6, i64 1080
  store double %0, ptr %9, align 8, !tbaa !19
  %10 = getelementptr inbounds nuw i8, ptr %6, i64 792
  %11 = getelementptr inbounds nuw i8, ptr %6, i64 984
  br label %12

12:                                               ; preds = %5, %12
  %indvars.iv = phi i64 [ 0, %5 ], [ %indvars.iv.next, %12 ]
  %13 = getelementptr inbounds nuw [11 x ptr], ptr @datasets, i64 0, i64 %indvars.iv
  %14 = load ptr, ptr %13, align 8, !tbaa !20
  %15 = getelementptr inbounds nuw [11 x [9 x double]], ptr %6, i64 0, i64 %indvars.iv
  tail call void @ArHosekSkyModel_CookConfiguration(ptr noundef %14, ptr noundef %15, double noundef %3, double noundef %4, double noundef %0)
  %16 = getelementptr inbounds nuw [11 x ptr], ptr @datasetsRad, i64 0, i64 %indvars.iv
  %17 = load ptr, ptr %16, align 8, !tbaa !20
  %18 = tail call double @ArHosekSkyModel_CookRadianceConfiguration(ptr noundef %17, double noundef %3, double noundef %4, double noundef %0)
  %19 = getelementptr inbounds nuw [11 x double], ptr %10, i64 0, i64 %indvars.iv
  store double %18, ptr %19, align 8, !tbaa !8
  %20 = trunc nuw nsw i64 %indvars.iv to i32
  %21 = uitofp nneg i32 %20 to double
  %22 = tail call double @llvm.fmuladd.f64(double %21, double 4.000000e+01, double 3.200000e+02)
  %23 = fmul double %22, 1.000000e-09
  %24 = getelementptr inbounds nuw [11 x double], ptr @originalSolarRadianceTable, i64 0, i64 %indvars.iv
  %25 = load double, ptr %24, align 8, !tbaa !8
  %26 = tail call double @pow(double noundef %23, double noundef 5.000000e+00) #12, !tbaa !4
  %27 = fdiv double 3.741770e-16, %26
  %28 = fmul double %2, %23
  %29 = fdiv double 1.438780e-02, %28
  %30 = tail call double @exp(double noundef %29) #12, !tbaa !4
  %31 = fadd double %30, -1.000000e+00
  %32 = fdiv double 1.000000e+00, %31
  %33 = fmul double %27, %32
  %34 = fmul double %33, 3.199920e-10
  %35 = fdiv double %34, %25
  %36 = getelementptr inbounds nuw [11 x double], ptr %11, i64 0, i64 %indvars.iv
  store double %35, ptr %36, align 8, !tbaa !8
  %indvars.iv.next = add nuw nsw i64 %indvars.iv, 1
  %exitcond.not = icmp eq i64 %indvars.iv.next, 11
  br i1 %exitcond.not, label %.preheader, label %12, !llvm.loop !24

.preheader:                                       ; preds = %12, %.preheader
  %indvars.iv52 = phi i64 [ %indvars.iv.next53, %.preheader ], [ 2, %12 ]
  %.04648 = phi double [ %39, %.preheader ], [ 0.000000e+00, %12 ]
  %37 = getelementptr inbounds nuw [11 x double], ptr %11, i64 0, i64 %indvars.iv52
  %38 = load double, ptr %37, align 8, !tbaa !8
  %39 = fadd double %.04648, %38
  %indvars.iv.next53 = add nuw nsw i64 %indvars.iv52, 1
  %exitcond55.not = icmp eq i64 %indvars.iv.next53, 11
  br i1 %exitcond55.not, label %40, label %.preheader, !llvm.loop !25

40:                                               ; preds = %.preheader
  %41 = fdiv double %39, 9.000000e+00
  %42 = tail call double @sqrt(double noundef %1) #12, !tbaa !4
  %43 = fmul double %42, 0x3F723AC80BF81B3F
  %44 = tail call double @sqrt(double noundef %41) #12, !tbaa !4
  %45 = fdiv double %43, %44
  %46 = getelementptr inbounds nuw i8, ptr %6, i64 888
  store double %45, ptr %46, align 8, !tbaa !15
  %47 = getelementptr inbounds nuw i8, ptr %6, i64 896
  br label %48

48:                                               ; preds = %40, %48
  %indvars.iv56 = phi i64 [ 0, %40 ], [ %indvars.iv.next57, %48 ]
  %49 = getelementptr inbounds nuw [11 x double], ptr %11, i64 0, i64 %indvars.iv56
  %50 = load double, ptr %49, align 8, !tbaa !8
  %51 = fmul double %1, %50
  %52 = fdiv double %51, %41
  %53 = getelementptr inbounds nuw [11 x double], ptr %47, i64 0, i64 %indvars.iv56
  store double %52, ptr %53, align 8, !tbaa !8
  %indvars.iv.next57 = add nuw nsw i64 %indvars.iv56, 1
  %exitcond59.not = icmp eq i64 %indvars.iv.next57, 11
  br i1 %exitcond59.not, label %54, label %48, !llvm.loop !26

54:                                               ; preds = %48
  ret ptr %6
}